target datalayout = "e-m:e-p270:32:32-p271:32:32-p272:64:64-i64:64-i128:128-f80:128-n8:16:32:64-S128"
target triple = "x86_64-pc-linux-gnu"

%class.dtPathQueue = type { [8 x %"struct.dtPathQueue::PathQuery"], i32, i32, i32, ptr }
%"struct.dtPathQueue::PathQuery" = type { i32, [3 x float], [3 x float], i32, i32, ptr, i32, i32, i32, ptr }

; Function Attrs: mustprogress nounwind uwtable
define linkonce_odr noundef zeroext i1 @_Z14dtStatusFailedj(i32 noundef %0) #0 comdat {
  %2 = alloca i32, align 4
  store i32 %0, ptr %2, align 4
  %3 = load i32, ptr %2, align 4
  %4 = and i32 %3, -2147483648
  %5 = icmp ne i32 %4, 0
  ret i1 %5
}

; Function Attrs: mustprogress uwtable
define void @_ZN11dtPathQueue5purgeEv(ptr noundef nonnull align 8 dereferenceable(600) %0) #1 align 2 {
  %2 = alloca ptr, align 8
  %3 = alloca i32, align 4
  store ptr %0, ptr %2, align 8
  %4 = load ptr, ptr %2, align 8
  %5 = getelementptr inbounds %class.dtPathQueue, ptr %4, i32 0, i32 4
  %6 = load ptr, ptr %5, align 8
  call void @_Z18dtFreeNavMeshQueryP14dtNavMeshQuery(ptr noundef %6)
  %7 = getelementptr inbounds %class.dtPathQueue, ptr %4, i32 0, i32 4
  store ptr null, ptr %7, align 8
  store i32 0, ptr %3, align 4
  br label %8

8:                                                ; preds = %23, %1
  %9 = load i32, ptr %3, align 4
  %10 = icmp slt i32 %9, 8
  br i1 %10, label %11, label %26

11:                                               ; preds = %8
  %12 = getelementptr inbounds %class.dtPathQueue, ptr %4, i32 0, i32 0
  %13 = load i32, ptr %3, align 4
  %14 = sext i32 %13 to i64
  %15 = getelementptr inbounds [8 x %"struct.dtPathQueue::PathQuery"], ptr %12, i64 0, i64 %14
  %16 = getelementptr inbounds %"struct.dtPathQueue::PathQuery", ptr %15, i32 0, i32 5
  %17 = load ptr, ptr %16, align 8
  call void @_Z6dtFreePv(ptr noundef %17)
  %18 = getelementptr inbounds %class.dtPathQueue, ptr %4, i32 0, i32 0
  %19 = load i32, ptr %3, align 4
  %20 = sext i32 %19 to i64
  %21 = getelementptr inbounds [8 x %"struct.dtPathQueue::PathQuery"], ptr %18, i64 0, i64 %20
  %22 = getelementptr inbounds %"struct.dtPathQueue::PathQuery", ptr %21, i32 0, i32 5
  store ptr null, ptr %22, align 8
  br label %23

23:                                               ; preds = %11
  %24 = load i32, ptr %3, align 4
  %25 = add nsw i32 %24, 1
  store i32 %25, ptr %3, align 4
  br label %8, !llvm.loop !6

26:                                               ; preds = %8
  ret void
}

; Function Attrs: mustprogress uwtable
define noundef zeroext i1 @_ZN11dtPathQueue4initEiiP9dtNavMesh(ptr noundef nonnull align 8 dereferenceable(600) %0, i32 noundef %1, i32 noundef %2, ptr noundef %3) #1 align 2 {
  %5 = alloca i1, align 1
  %6 = alloca ptr, align 8
  %7 = alloca i32, align 4
  %8 = alloca i32, align 4
  %9 = alloca ptr, align 8
  %10 = alloca i32, align 4
  store ptr %0, ptr %6, align 8
  store i32 %1, ptr %7, align 4
  store i32 %2, ptr %8, align 4
  store ptr %3, ptr %9, align 8
  %11 = load ptr, ptr %6, align 8
  call void @_ZN11dtPathQueue5purgeEv(ptr noundef nonnull align 8 dereferenceable(600) %11)
  %12 = call noundef ptr @_Z19dtAllocNavMeshQueryv()
  %13 = getelementptr inbounds %class.dtPathQueue, ptr %11, i32 0, i32 4
  store ptr %12, ptr %13, align 8
  %14 = getelementptr inbounds %class.dtPathQueue, ptr %11, i32 0, i32 4
  %15 = load ptr, ptr %14, align 8
  %16 = icmp ne ptr %15, null
  br i1 %16, label %18, label %17

17:                                               ; preds = %4
  store i1 false, ptr %5, align 1
  br label %62

18:                                               ; preds = %4
  %19 = getelementptr inbounds %class.dtPathQueue, ptr %11, i32 0, i32 4
  %20 = load ptr, ptr %19, align 8
  %21 = load ptr, ptr %9, align 8
  %22 = load i32, ptr %8, align 4
  %23 = call noundef i32 @_ZN14dtNavMeshQuery4initEPK9dtNavMeshi(ptr noundef nonnull align 8 dereferenceable(104) %20, ptr noundef %21, i32 noundef %22)
  %24 = call noundef zeroext i1 @_Z14dtStatusFailedj(i32 noundef %23)
  br i1 %24, label %25, label %26

25:                                               ; preds = %18
  store i1 false, ptr %5, align 1
  br label %62

26:                                               ; preds = %18
  %27 = load i32, ptr %7, align 4
  %28 = getelementptr inbounds %class.dtPathQueue, ptr %11, i32 0, i32 2
  store i32 %27, ptr %28, align 4
  store i32 0, ptr %10, align 4
  br label %29

29:                                               ; preds = %57, %26
  %30 = load i32, ptr %10, align 4
  %31 = icmp slt i32 %30, 8
  br i1 %31, label %32, label %60

32:                                               ; preds = %29
  %33 = getelementptr inbounds %class.dtPathQueue, ptr %11, i32 0, i32 0
  %34 = load i32, ptr %10, align 4
  %35 = sext i32 %34 to i64
  %36 = getelementptr inbounds [8 x %"struct.dtPathQueue::PathQuery"], ptr %33, i64 0, i64 %35
  %37 = getelementptr inbounds %"struct.dtPathQueue::PathQuery", ptr %36, i32 0, i32 0
  store i32 0, ptr %37, align 8
  %38 = getelementptr inbounds %class.dtPathQueue, ptr %11, i32 0, i32 2
  %39 = load i32, ptr %38, align 4
  %40 = sext i32 %39 to i64
  %41 = mul i64 4, %40
  %42 = call noundef ptr @_Z7dtAllocm11dtAllocHint(i64 noundef %41, i32 noundef 0)
  %43 = getelementptr inbounds %class.dtPathQueue, ptr %11, i32 0, i32 0
  %44 = load i32, ptr %10, align 4
  %45 = sext i32 %44 to i64
  %46 = getelementptr inbounds [8 x %"struct.dtPathQueue::PathQuery"], ptr %43, i64 0, i64 %45
  %47 = getelementptr inbounds %"struct.dtPathQueue::PathQuery", ptr %46, i32 0, i32 5
  store ptr %42, ptr %47, align 8
  %48 = getelementptr inbounds %class.dtPathQueue, ptr %11, i32 0, i32 0
  %49 = load i32, ptr %10, align 4
  %50 = sext i32 %49 to i64
  %51 = getelementptr inbounds [8 x %"struct.dtPathQueue::PathQuery"], ptr %48, i64 0, i64 %50
  %52 = getelementptr inbounds %"struct.dtPathQueue::PathQuery", ptr %51, i32 0, i32 5
  %53 = load ptr, ptr %52, align 8
  %54 = icmp ne ptr %53, null
  br i1 %54, label %56, label %55

55:                                               ; preds = %32
  store i1 false, ptr %5, align 1
  br label %62

56:                                               ; preds = %32
  br label %57

57:                                               ; preds = %56
  %58 = load i32, ptr %10, align 4
  %59 = add nsw i32 %58, 1
  store i32 %59, ptr %10, align 4
  br label %29, !llvm.loop !7

60:                                               ; preds = %29
  %61 = getelementptr inbounds %class.dtPathQueue, ptr %11, i32 0, i32 3
  store i32 0, ptr %61, align 8
  store i1 true, ptr %5, align 1
  br label %62

62:                                               ; preds = %60, %55, %25, %17
  %63 = load i1, ptr %5, align 1
  ret i1 %63
}