; Function Attrs: mustprogress uwtable
define noundef zeroext i1 @_ZN11dtPathQueue4initEiiP9dtNavMesh(ptr noundef nonnull align 8 captures(none) dereferenceable(600) %0, i32 noundef %1, i32 noundef %2, ptr noundef %3) local_unnamed_addr #2 align 2 {
  %5 = getelementptr inbounds nuw i8, ptr %0, i64 592
  %6 = load ptr, ptr %5, align 8
  tail call void @_Z18dtFreeNavMeshQueryP14dtNavMeshQuery(ptr noundef %6)
  store ptr null, ptr %5, align 8
  br label %7

7:                                                ; preds = %7, %4
  %indvars.iv.i = phi i64 [ 0, %4 ], [ %indvars.iv.next.i, %7 ]
  %8 = getelementptr inbounds nuw [8 x %"struct.dtPathQueue::PathQuery"], ptr %0, i64 0, i64 %indvars.iv.i, i32 5
  %9 = load ptr, ptr %8, align 8
  tail call void @_Z6dtFreePv(ptr noundef %9)
  store ptr null, ptr %8, align 8
  %indvars.iv.next.i = add nuw nsw i64 %indvars.iv.i, 1
  %exitcond.not.i = icmp eq i64 %indvars.iv.next.i, 8
  br i1 %exitcond.not.i, label %_ZN11dtPathQueue5purgeEv.exit, label %7, !llvm.loop !6

_ZN11dtPathQueue5purgeEv.exit:                    ; preds = %7
  %10 = tail call noundef ptr @_Z19dtAllocNavMeshQueryv()
  store ptr %10, ptr %5, align 8
  %.not = icmp eq ptr %10, null
  br i1 %.not, label %.loopexit, label %11

11:                                               ; preds = %_ZN11dtPathQueue5purgeEv.exit
  %12 = tail call noundef i32 @_ZN14dtNavMeshQuery4initEPK9dtNavMeshi(ptr noundef nonnull align 8 dereferenceable(104) %10, ptr noundef %3, i32 noundef %2)
  %13 = icmp slt i32 %12, 0
  br i1 %13, label %.loopexit, label %14

14:                                               ; preds = %11
  %15 = getelementptr inbounds nuw i8, ptr %0, i64 580
  store i32 %1, ptr %15, align 4
  br label %17

16:                                               ; preds = %17
  %indvars.iv.next = add nuw nsw i64 %indvars.iv, 1
  %exitcond.not = icmp eq i64 %indvars.iv.next, 8
  br i1 %exitcond.not, label %24, label %17, !llvm.loop !7

17:                                               ; preds = %14, %16
  %indvars.iv = phi i64 [ 0, %14 ], [ %indvars.iv.next, %16 ]
  %18 = getelementptr inbounds nuw [8 x %"struct.dtPathQueue::PathQuery"], ptr %0, i64 0, i64 %indvars.iv
  store i32 0, ptr %18, align 8
  %19 = load i32, ptr %15, align 4
  %20 = sext i32 %19 to i64
  %21 = shl nsw i64 %20, 2
  %22 = tail call noundef ptr @_Z7dtAllocm11dtAllocHint(i64 noundef %21, i32 noundef 0)
  %23 = getelementptr inbounds nuw i8, ptr %18, i64 40
  store ptr %22, ptr %23, align 8
  %.not11 = icmp eq ptr %22, null
  br i1 %.not11, label %.loopexit, label %16

24:                                               ; preds = %16
  %25 = getelementptr inbounds nuw i8, ptr %0, i64 584
  store i32 0, ptr %25, align 8
  br label %.loopexit

.loopexit:                                        ; preds = %17, %11, %_ZN11dtPathQueue5purgeEv.exit, %24
  %.09 = phi i1 [ true, %24 ], [ false, %_ZN11dtPathQueue5purgeEv.exit ], [ false, %11 ], [ false, %17 ]
  ret i1 %.09
}